target datalayout = "e-m:e-p270:32:32-p271:32:32-p272:64:64-i64:64-i128:128-f80:128-n8:16:32:64-S128"
target triple = "x86_64-unknown-linux-gnu"

%"struct.icu_75::number::impl::MacroProps" = type { [4 x i8], %"class.icu_75::number::Notation", %"class.icu_75::MeasureUnit", %"class.icu_75::MeasureUnit", %"class.icu_75::number::Precision", i32, %"class.icu_75::number::impl::Grouper", %"class.icu_75::number::impl::Padder", %"class.icu_75::number::IntegerWidth", %"class.icu_75::number::impl::SymbolsWrapper", i32, i32, i8, i32, %"class.icu_75::number::Scale", %"class.icu_75::number::impl::StringProp", %"class.icu_75::number::impl::StringProp", ptr, ptr, i32, [4 x i8], %"class.icu_75::Locale" }
%"class.icu_75::number::Notation" = type { i32, %"union.icu_75::number::Notation::NotationUnion" }
%"union.icu_75::number::Notation::NotationUnion" = type { %"struct.icu_75::number::Notation::NotationUnion::ScientificSettings" }
%"struct.icu_75::number::Notation::NotationUnion::ScientificSettings" = type { i8, i8, i16, i32 }
%"class.icu_75::MeasureUnit" = type <{ %"class.icu_75::UObject", ptr, i16, i8, [5 x i8] }>
%"class.icu_75::UObject" = type { ptr }
%"class.icu_75::number::Precision" = type <{ i32, [4 x i8], %"union.icu_75::number::Precision::PrecisionUnion", i32, [4 x i8] }>
%"union.icu_75::number::Precision::PrecisionUnion" = type { %"struct.icu_75::number::Precision::PrecisionUnion::IncrementSettings" }
%"struct.icu_75::number::Precision::PrecisionUnion::IncrementSettings" = type { i64, i16, i16 }
%"class.icu_75::number::impl::Grouper" = type { i16, i16, i16, i32 }
%"class.icu_75::number::impl::Padder" = type { i32, %union.anon }
%union.anon = type { %struct.anon }
%struct.anon = type { i32, i32 }
%"class.icu_75::number::IntegerWidth" = type <{ %union.anon.0, i8, [3 x i8] }>
%union.anon.0 = type { i32, [4 x i8] }
%"class.icu_75::number::impl::SymbolsWrapper" = type { i32, %union.anon.2 }
%union.anon.2 = type { ptr }
%"class.icu_75::number::Scale" = type <{ i32, [4 x i8], ptr, i32, [4 x i8] }>
%"class.icu_75::number::impl::StringProp" = type { ptr, i16, i32 }
%"class.icu_75::Locale" = type <{ %"class.icu_75::UObject", [12 x i8], [6 x i8], [4 x i8], [2 x i8], i32, [4 x i8], ptr, [157 x i8], [3 x i8], ptr, i8, [7 x i8] }>
%"class.icu_75::number::LocalizedNumberFormatter" = type { %"class.icu_75::number::NumberFormatterSettings.5", ptr, [8 x i8], ptr }
%"class.icu_75::number::NumberFormatterSettings.5" = type { %"struct.icu_75::number::impl::MacroProps" }
%"struct.icu_75::number::impl::DecimalFormatWarehouse" = type { [8 x i8], %"class.icu_75::number::impl::AutoAffixPatternProvider", %"class.icu_75::LocalPointer.34" }
%"class.icu_75::number::impl::AutoAffixPatternProvider" = type { %"class.icu_75::number::impl::PropertiesAffixPatternProvider", %"class.icu_75::number::impl::CurrencyPluralInfoAffixProvider" }
%"class.icu_75::number::impl::PropertiesAffixPatternProvider" = type <{ %"class.icu_75::number::impl::AffixPatternProvider", %"class.icu_75::UnicodeString", %"class.icu_75::UnicodeString", %"class.icu_75::UnicodeString", %"class.icu_75::UnicodeString", i8, i8, i8, [5 x i8] }>
%"class.icu_75::number::impl::AffixPatternProvider" = type { ptr }
%"class.icu_75::UnicodeString" = type { %"class.icu_75::Replaceable", %"union.icu_75::UnicodeString::StackBufferOrFields" }
%"class.icu_75::Replaceable" = type { %"class.icu_75::UObject" }
%"union.icu_75::UnicodeString::StackBufferOrFields" = type { %struct.anon.4, [32 x i8] }
%struct.anon.4 = type { i16, i32, i32, ptr }
%"class.icu_75::number::impl::CurrencyPluralInfoAffixProvider" = type <{ %"class.icu_75::number::impl::AffixPatternProvider", [8 x %"class.icu_75::number::impl::PropertiesAffixPatternProvider"], i8, [7 x i8] }>
%"class.icu_75::LocalPointer.34" = type { %"class.icu_75::LocalPointerBase.35" }
%"class.icu_75::LocalPointerBase.35" = type { ptr }

; Function Attrs: mustprogress nounwind uwtable
define linkonce_odr void @_ZN6icu_7516LocalPointerBaseINS_11PluralRulesEED2Ev(ptr noundef nonnull align 8 dereferenceable(8) %this) unnamed_addr #0 comdat align 2 {
entry:
  %this.addr = alloca ptr, align 8
  store ptr %this, ptr %this.addr, align 8
  ret void
}

; Function Attrs: mustprogress nounwind uwtable
define linkonce_odr void @_ZN6icu_756number4impl10MacroPropsD2Ev(ptr noundef nonnull align 8 dereferenceable(472) %this) unnamed_addr #0 comdat align 2 {
entry:
  %this.addr = alloca ptr, align 8
  store ptr %this, ptr %this.addr, align 8
  %this1 = load ptr, ptr %this.addr, align 8
  %locale = getelementptr inbounds %"struct.icu_75::number::impl::MacroProps", ptr %this1, i32 0, i32 21
  call void @_ZN6icu_756LocaleD1Ev(ptr noundef nonnull align 8 dereferenceable(217) %locale) #10
  %unitDisplayCase = getelementptr inbounds %"struct.icu_75::number::impl::MacroProps", ptr %this1, i32 0, i32 16
  call void @_ZN6icu_756number4impl10StringPropD1Ev(ptr noundef nonnull align 8 dereferenceable(16) %unitDisplayCase) #10
  %usage = getelementptr inbounds %"struct.icu_75::number::impl::MacroProps", ptr %this1, i32 0, i32 15
  call void @_ZN6icu_756number4impl10StringPropD1Ev(ptr noundef nonnull align 8 dereferenceable(16) %usage) #10
  %scale = getelementptr inbounds %"struct.icu_75::number::impl::MacroProps", ptr %this1, i32 0, i32 14
  call void @_ZN6icu_756number5ScaleD1Ev(ptr noundef nonnull align 8 dereferenceable(20) %scale) #10
  %symbols = getelementptr inbounds %"struct.icu_75::number::impl::MacroProps", ptr %this1, i32 0, i32 9
  call void @_ZN6icu_756number4impl14SymbolsWrapperD1Ev(ptr noundef nonnull align 8 dereferenceable(16) %symbols) #10
  %perUnit = getelementptr inbounds %"struct.icu_75::number::impl::MacroProps", ptr %this1, i32 0, i32 3
  call void @_ZN6icu_7511MeasureUnitD1Ev(ptr noundef nonnull align 8 dereferenceable(19) %perUnit) #10
  %unit = getelementptr inbounds %"struct.icu_75::number::impl::MacroProps", ptr %this1, i32 0, i32 2
  call void @_ZN6icu_7511MeasureUnitD1Ev(ptr noundef nonnull align 8 dereferenceable(19) %unit) #10
  ret void
}

; Function Attrs: mustprogress nounwind uwtable
define linkonce_odr void @_ZN6icu_7512LocalPointerINS_11PluralRulesEED2Ev(ptr noundef nonnull align 8 dereferenceable(8) %this) unnamed_addr #0 comdat align 2 {
entry:
  %this.addr = alloca ptr, align 8
  store ptr %this, ptr %this.addr, align 8
  %this1 = load ptr, ptr %this.addr, align 8
  %ptr = getelementptr inbounds %"class.icu_75::LocalPointerBase.35", ptr %this1, i32 0, i32 0
  %0 = load ptr, ptr %ptr, align 8
  %isnull = icmp eq ptr %0, null
  br i1 %isnull, label %delete.end, label %delete.notnull

delete.notnull:                                   ; preds = %entry
  %vtable = load ptr, ptr %0, align 8
  %vfn = getelementptr inbounds ptr, ptr %vtable, i64 1
  %1 = load ptr, ptr %vfn, align 8
  call void %1(ptr noundef nonnull align 8 dereferenceable(28) %0) #10
  br label %delete.end

delete.end:                                       ; preds = %delete.notnull, %entry
  call void @_ZN6icu_7516LocalPointerBaseINS_11PluralRulesEED2Ev(ptr noundef nonnull align 8 dereferenceable(8) %this1) #10
  ret void
}

; Function Attrs: mustprogress nounwind uwtable
define linkonce_odr void @_ZN6icu_756number23NumberFormatterSettingsINS0_24LocalizedNumberFormatterEED2Ev(ptr noundef nonnull align 8 dereferenceable(472) %this) unnamed_addr #0 comdat align 2 {
entry:
  %this.addr = alloca ptr, align 8
  store ptr %this, ptr %this.addr, align 8
  %this1 = load ptr, ptr %this.addr, align 8
  %fMacros = getelementptr inbounds %"class.icu_75::number::NumberFormatterSettings.5", ptr %this1, i32 0, i32 0
  call void @_ZN6icu_756number4impl10MacroPropsD2Ev(ptr noundef nonnull align 8 dereferenceable(472) %fMacros) #10
  ret void
}

; Function Attrs: mustprogress nounwind uwtable
define linkonce_odr void @_ZN6icu_756number4impl22DecimalFormatWarehouseD2Ev(ptr noundef nonnull align 8 dereferenceable(2480) %this) unnamed_addr #0 comdat align 2 {
entry:
  %this.addr = alloca ptr, align 8
  store ptr %this, ptr %this.addr, align 8
  %this1 = load ptr, ptr %this.addr, align 8
  %rules = getelementptr inbounds %"struct.icu_75::number::impl::DecimalFormatWarehouse", ptr %this1, i32 0, i32 2
  call void @_ZN6icu_7512LocalPointerINS_11PluralRulesEED2Ev(ptr noundef nonnull align 8 dereferenceable(8) %rules) #10
  %affixProvider = getelementptr inbounds %"struct.icu_75::number::impl::DecimalFormatWarehouse", ptr %this1, i32 0, i32 1
  call void @_ZN6icu_756number4impl24AutoAffixPatternProviderD2Ev(ptr noundef nonnull align 8 dereferenceable(2464) %affixProvider) #10
  ret void
}

; Function Attrs: mustprogress nounwind uwtable
define void @_ZN6icu_756number24LocalizedNumberFormatterD2Ev(ptr noundef nonnull align 8 dereferenceable(496) %this) unnamed_addr #0 align 2 {
entry:
  %this.addr = alloca ptr, align 8
  store ptr %this, ptr %this.addr, align 8
  %this1 = load ptr, ptr %this.addr, align 8
  %fCompiled = getelementptr inbounds %"class.icu_75::number::LocalizedNumberFormatter", ptr %this1, i32 0, i32 1
  %0 = load ptr, ptr %fCompiled, align 8
  %isnull = icmp eq ptr %0, null
  br i1 %isnull, label %delete.end, label %delete.notnull

delete.notnull:                                   ; preds = %entry
  call void @_ZN6icu_756number4impl19NumberFormatterImplD2Ev(ptr noundef nonnull align 8 dereferenceable(600) %0) #10
  call void @_ZN6icu_757UMemorydlEPv(ptr noundef %0) #10
  br label %delete.end

delete.end:                                       ; preds = %delete.notnull, %entry
  %fWarehouse = getelementptr inbounds %"class.icu_75::number::LocalizedNumberFormatter", ptr %this1, i32 0, i32 3
  %1 = load ptr, ptr %fWarehouse, align 8
  %isnull2 = icmp eq ptr %1, null
  br i1 %isnull2, label %delete.end4, label %delete.notnull3

delete.notnull3:                                  ; preds = %delete.end
  call void @_ZN6icu_756number4impl22DecimalFormatWarehouseD2Ev(ptr noundef nonnull align 8 dereferenceable(2480) %1) #10
  call void @_ZN6icu_757UMemorydlEPv(ptr noundef %1) #10
  br label %delete.end4

delete.end4:                                      ; preds = %delete.notnull3, %delete.end
  call void @_ZN6icu_756number23NumberFormatterSettingsINS0_24LocalizedNumberFormatterEED2Ev(ptr noundef nonnull align 8 dereferenceable(472) %this1) #10
  ret void
}