; Function Attrs: mustprogress nounwind uwtable
define void @_ZN6icu_756number24LocalizedNumberFormatterD2Ev(ptr noundef nonnull align 8 dereferenceable(496) %this) unnamed_addr #0 align 2 {
entry:
  %fCompiled = getelementptr inbounds i8, ptr %this, i64 472
  %0 = load ptr, ptr %fCompiled, align 8
  %isnull = icmp eq ptr %0, null
  br i1 %isnull, label %delete.end, label %delete.notnull

delete.notnull:                                   ; preds = %entry
  tail call void @_ZN6icu_756number4impl19NumberFormatterImplD2Ev(ptr noundef nonnull align 8 dereferenceable(600) %0) #14
  tail call void @_ZN6icu_757UMemorydlEPv(ptr noundef nonnull %0) #14
  br label %delete.end

delete.end:                                       ; preds = %delete.notnull, %entry
  %fWarehouse = getelementptr inbounds i8, ptr %this, i64 488
  %1 = load ptr, ptr %fWarehouse, align 8
  %isnull2 = icmp eq ptr %1, null
  br i1 %isnull2, label %delete.end4, label %delete.notnull3

delete.notnull3:                                  ; preds = %delete.end
  %rules.i = getelementptr inbounds i8, ptr %1, i64 2472
  %2 = load ptr, ptr %rules.i, align 8
  %isnull.i.i = icmp eq ptr %2, null
  br i1 %isnull.i.i, label %_ZN6icu_756number4impl22DecimalFormatWarehouseD2Ev.exit, label %delete.notnull.i.i

delete.notnull.i.i:                               ; preds = %delete.notnull3
  %vtable.i.i = load ptr, ptr %2, align 8
  %vfn.i.i = getelementptr inbounds i8, ptr %vtable.i.i, i64 8
  %3 = load ptr, ptr %vfn.i.i, align 8
  tail call void %3(ptr noundef nonnull align 8 dereferenceable(28) %2) #14
  br label %_ZN6icu_756number4impl22DecimalFormatWarehouseD2Ev.exit

_ZN6icu_756number4impl22DecimalFormatWarehouseD2Ev.exit: ; preds = %delete.notnull3, %delete.notnull.i.i
  %affixProvider.i = getelementptr inbounds i8, ptr %1, i64 8
  tail call void @_ZN6icu_756number4impl24AutoAffixPatternProviderD2Ev(ptr noundef nonnull align 8 dereferenceable(2464) %affixProvider.i) #14
  tail call void @_ZN6icu_757UMemorydlEPv(ptr noundef nonnull %1) #14
  br label %delete.end4

delete.end4:                                      ; preds = %_ZN6icu_756number4impl22DecimalFormatWarehouseD2Ev.exit, %delete.end
  %locale.i.i = getelementptr inbounds i8, ptr %this, i64 248
  tail call void @_ZN6icu_756LocaleD1Ev(ptr noundef nonnull align 8 dereferenceable(217) %locale.i.i) #14
  %unitDisplayCase.i.i = getelementptr inbounds i8, ptr %this, i64 208
  tail call void @_ZN6icu_756number4impl10StringPropD1Ev(ptr noundef nonnull align 8 dereferenceable(16) %unitDisplayCase.i.i) #14
  %usage.i.i = getelementptr inbounds i8, ptr %this, i64 192
  tail call void @_ZN6icu_756number4impl10StringPropD1Ev(ptr noundef nonnull align 8 dereferenceable(16) %usage.i.i) #14
  %scale.i.i = getelementptr inbounds i8, ptr %this, i64 168
  tail call void @_ZN6icu_756number5ScaleD1Ev(ptr noundef nonnull align 8 dereferenceable(20) %scale.i.i) #14
  %symbols.i.i = getelementptr inbounds i8, ptr %this, i64 136
  tail call void @_ZN6icu_756number4impl14SymbolsWrapperD1Ev(ptr noundef nonnull align 8 dereferenceable(16) %symbols.i.i) #14
  %perUnit.i.i = getelementptr inbounds i8, ptr %this, i64 40
  tail call void @_ZN6icu_7511MeasureUnitD1Ev(ptr noundef nonnull align 8 dereferenceable(19) %perUnit.i.i) #14
  %unit.i.i = getelementptr inbounds i8, ptr %this, i64 16
  tail call void @_ZN6icu_7511MeasureUnitD1Ev(ptr noundef nonnull align 8 dereferenceable(19) %unit.i.i) #14
  ret void
}